#include <math.h>
#include <stdio.h>
#include <stdlib.h>
#include <string.h>

void main()
{
	int a[100]={0};
	int s,k,i,j;
	scanf("%d%d",&s,&k);
	for(i=0;i<s;i++)
	{
		scanf("%d",&a[i]);
	}
	for(i=0;i<k;i++)
	{
		for(j=s-1;j>-1;j--)
		{
			a[j+1]=a[j];
		}
		a[0]=a[s];
	}
	printf("%d",a[0]);
	for(i=1;i<s;i++)
	{
		printf(" %d",a[i]);
	}
}
